target datalayout = "e-m:e-p270:32:32-p271:32:32-p272:64:64-i64:64-i128:128-f80:128-n8:16:32:64-S128"
target triple = "x86_64-pc-linux-gnu"

%struct.Color = type { i8, i8, i8, i8 }
%struct.Vector2 = type { float, float }

; Function Attrs: nounwind uwtable
define internal float @EaseCubicInOut(float noundef %0, float noundef %1, float noundef %2, float noundef %3) #2 {
  %5 = alloca float, align 4
  %6 = alloca float, align 4
  %7 = alloca float, align 4
  %8 = alloca float, align 4
  %9 = alloca float, align 4
  store float %0, ptr %5, align 4
  store float %1, ptr %6, align 4
  store float %2, ptr %7, align 4
  store float %3, ptr %8, align 4
  call void @llvm.lifetime.start.p0(i64 4, ptr %9) #8
  store float 0.000000e+00, ptr %9, align 4
  %10 = load float, ptr %8, align 4
  %11 = fmul float 5.000000e-01, %10
  %12 = load float, ptr %5, align 4
  %13 = fdiv float %12, %11
  store float %13, ptr %5, align 4
  %14 = fcmp olt float %13, 1.000000e+00
  br i1 %14, label %15, label %25

15:                                               ; preds = %4
  %16 = load float, ptr %7, align 4
  %17 = fmul float 5.000000e-01, %16
  %18 = load float, ptr %5, align 4
  %19 = fmul float %17, %18
  %20 = load float, ptr %5, align 4
  %21 = fmul float %19, %20
  %22 = load float, ptr %5, align 4
  %23 = load float, ptr %6, align 4
  %24 = call float @llvm.fmuladd.f32(float %21, float %22, float %23)
  store float %24, ptr %9, align 4
  br label %37

25:                                               ; preds = %4
  %26 = load float, ptr %5, align 4
  %27 = fsub float %26, 2.000000e+00
  store float %27, ptr %5, align 4
  %28 = load float, ptr %7, align 4
  %29 = fmul float 5.000000e-01, %28
  %30 = load float, ptr %5, align 4
  %31 = load float, ptr %5, align 4
  %32 = fmul float %30, %31
  %33 = load float, ptr %5, align 4
  %34 = call float @llvm.fmuladd.f32(float %32, float %33, float 2.000000e+00)
  %35 = load float, ptr %6, align 4
  %36 = call float @llvm.fmuladd.f32(float %29, float %34, float %35)
  store float %36, ptr %9, align 4
  br label %37

37:                                               ; preds = %25, %15
  %38 = load float, ptr %9, align 4
  call void @llvm.lifetime.end.p0(i64 4, ptr %9) #8
  ret float %38
}

; Function Attrs: nounwind uwtable
define void @DrawLineBezier(<2 x float> %0, <2 x float> %1, float noundef %2, i32 %3) #0 {
  %5 = alloca %struct.Vector2, align 4
  %6 = alloca %struct.Vector2, align 4
  %7 = alloca %struct.Color, align 1
  %8 = alloca float, align 4
  %9 = alloca %struct.Vector2, align 4
  %10 = alloca %struct.Vector2, align 4
  %11 = alloca [50 x %struct.Vector2], align 16
  %12 = alloca i32, align 4
  %13 = alloca float, align 4
  %14 = alloca float, align 4
  %15 = alloca float, align 4
  store <2 x float> %0, ptr %5, align 4
  store <2 x float> %1, ptr %6, align 4
  store i32 %3, ptr %7, align 1
  store float %2, ptr %8, align 4
  call void @llvm.lifetime.start.p0(i64 8, ptr %9) #8
  call void @llvm.memcpy.p0.p0.i64(ptr align 4 %9, ptr align 4 %5, i64 8, i1 false)
  call void @llvm.lifetime.start.p0(i64 8, ptr %10) #8
  call void @llvm.memset.p0.i64(ptr align 4 %10, i8 0, i64 8, i1 false)
  call void @llvm.lifetime.start.p0(i64 400, ptr %11) #8
  call void @llvm.memset.p0.i64(ptr align 16 %11, i8 0, i64 400, i1 false)
  call void @llvm.lifetime.start.p0(i64 4, ptr %12) #8
  store i32 1, ptr %12, align 4
  br label %16

16:                                               ; preds = %140, %4
  %17 = load i32, ptr %12, align 4
  %18 = icmp sle i32 %17, 24
  br i1 %18, label %20, label %19

19:                                               ; preds = %16
  call void @llvm.lifetime.end.p0(i64 4, ptr %12) #8
  br label %143

20:                                               ; preds = %16
  %21 = load i32, ptr %12, align 4
  %22 = sitofp i32 %21 to float
  %23 = getelementptr inbounds nuw %struct.Vector2, ptr %5, i32 0, i32 1
  %24 = load float, ptr %23, align 4
  %25 = getelementptr inbounds nuw %struct.Vector2, ptr %6, i32 0, i32 1
  %26 = load float, ptr %25, align 4
  %27 = getelementptr inbounds nuw %struct.Vector2, ptr %5, i32 0, i32 1
  %28 = load float, ptr %27, align 4
  %29 = fsub float %26, %28
  %30 = call float @EaseCubicInOut(float noundef %22, float noundef %24, float noundef %29, float noundef 2.400000e+01)
  %31 = getelementptr inbounds nuw %struct.Vector2, ptr %10, i32 0, i32 1
  store float %30, ptr %31, align 4
  %32 = getelementptr inbounds nuw %struct.Vector2, ptr %9, i32 0, i32 0
  %33 = load float, ptr %32, align 4
  %34 = getelementptr inbounds nuw %struct.Vector2, ptr %6, i32 0, i32 0
  %35 = load float, ptr %34, align 4
  %36 = getelementptr inbounds nuw %struct.Vector2, ptr %5, i32 0, i32 0
  %37 = load float, ptr %36, align 4
  %38 = fsub float %35, %37
  %39 = fdiv float %38, 2.400000e+01
  %40 = fadd float %33, %39
  %41 = getelementptr inbounds nuw %struct.Vector2, ptr %10, i32 0, i32 0
  store float %40, ptr %41, align 4
  call void @llvm.lifetime.start.p0(i64 4, ptr %13) #8
  %42 = getelementptr inbounds nuw %struct.Vector2, ptr %10, i32 0, i32 1
  %43 = load float, ptr %42, align 4
  %44 = getelementptr inbounds nuw %struct.Vector2, ptr %9, i32 0, i32 1
  %45 = load float, ptr %44, align 4
  %46 = fsub float %43, %45
  store float %46, ptr %13, align 4
  call void @llvm.lifetime.start.p0(i64 4, ptr %14) #8
  %47 = getelementptr inbounds nuw %struct.Vector2, ptr %10, i32 0, i32 0
  %48 = load float, ptr %47, align 4
  %49 = getelementptr inbounds nuw %struct.Vector2, ptr %9, i32 0, i32 0
  %50 = load float, ptr %49, align 4
  %51 = fsub float %48, %50
  store float %51, ptr %14, align 4
  call void @llvm.lifetime.start.p0(i64 4, ptr %15) #8
  %52 = load float, ptr %8, align 4
  %53 = fmul float 5.000000e-01, %52
  %54 = load float, ptr %14, align 4
  %55 = load float, ptr %14, align 4
  %56 = load float, ptr %13, align 4
  %57 = load float, ptr %13, align 4
  %58 = fmul float %56, %57
  %59 = call float @llvm.fmuladd.f32(float %54, float %55, float %58)
  %60 = call float @sqrtf(float noundef %59) #8
  %61 = fdiv float %53, %60
  store float %61, ptr %15, align 4
  %62 = load i32, ptr %12, align 4
  %63 = icmp eq i32 %62, 1
  br i1 %63, label %64, label %95

64:                                               ; preds = %20
  %65 = getelementptr inbounds nuw %struct.Vector2, ptr %9, i32 0, i32 0
  %66 = load float, ptr %65, align 4
  %67 = load float, ptr %13, align 4
  %68 = load float, ptr %15, align 4
  %69 = call float @llvm.fmuladd.f32(float %67, float %68, float %66)
  %70 = getelementptr inbounds [50 x %struct.Vector2], ptr %11, i64 0, i64 0
  %71 = getelementptr inbounds nuw %struct.Vector2, ptr %70, i32 0, i32 0
  store float %69, ptr %71, align 16
  %72 = getelementptr inbounds nuw %struct.Vector2, ptr %9, i32 0, i32 1
  %73 = load float, ptr %72, align 4
  %74 = load float, ptr %14, align 4
  %75 = load float, ptr %15, align 4
  %76 = fneg float %74
  %77 = call float @llvm.fmuladd.f32(float %76, float %75, float %73)
  %78 = getelementptr inbounds [50 x %struct.Vector2], ptr %11, i64 0, i64 0
  %79 = getelementptr inbounds nuw %struct.Vector2, ptr %78, i32 0, i32 1
  store float %77, ptr %79, align 4
  %80 = getelementptr inbounds nuw %struct.Vector2, ptr %9, i32 0, i32 0
  %81 = load float, ptr %80, align 4
  %82 = load float, ptr %13, align 4
  %83 = load float, ptr %15, align 4
  %84 = fneg float %82
  %85 = call float @llvm.fmuladd.f32(float %84, float %83, float %81)
  %86 = getelementptr inbounds [50 x %struct.Vector2], ptr %11, i64 0, i64 1
  %87 = getelementptr inbounds nuw %struct.Vector2, ptr %86, i32 0, i32 0
  store float %85, ptr %87, align 8
  %88 = getelementptr inbounds nuw %struct.Vector2, ptr %9, i32 0, i32 1
  %89 = load float, ptr %88, align 4
  %90 = load float, ptr %14, align 4
  %91 = load float, ptr %15, align 4
  %92 = call float @llvm.fmuladd.f32(float %90, float %91, float %89)
  %93 = getelementptr inbounds [50 x %struct.Vector2], ptr %11, i64 0, i64 1
  %94 = getelementptr inbounds nuw %struct.Vector2, ptr %93, i32 0, i32 1
  store float %92, ptr %94, align 4
  br label %95

95:                                               ; preds = %64, %20
  %96 = getelementptr inbounds nuw %struct.Vector2, ptr %10, i32 0, i32 0
  %97 = load float, ptr %96, align 4
  %98 = load float, ptr %13, align 4
  %99 = load float, ptr %15, align 4
  %100 = fneg float %98
  %101 = call float @llvm.fmuladd.f32(float %100, float %99, float %97)
  %102 = load i32, ptr %12, align 4
  %103 = mul nsw i32 2, %102
  %104 = add nsw i32 %103, 1
  %105 = sext i32 %104 to i64
  %106 = getelementptr inbounds [50 x %struct.Vector2], ptr %11, i64 0, i64 %105
  %107 = getelementptr inbounds nuw %struct.Vector2, ptr %106, i32 0, i32 0
  store float %101, ptr %107, align 8
  %108 = getelementptr inbounds nuw %struct.Vector2, ptr %10, i32 0, i32 1
  %109 = load float, ptr %108, align 4
  %110 = load float, ptr %14, align 4
  %111 = load float, ptr %15, align 4
  %112 = call float @llvm.fmuladd.f32(float %110, float %111, float %109)
  %113 = load i32, ptr %12, align 4
  %114 = mul nsw i32 2, %113
  %115 = add nsw i32 %114, 1
  %116 = sext i32 %115 to i64
  %117 = getelementptr inbounds [50 x %struct.Vector2], ptr %11, i64 0, i64 %116
  %118 = getelementptr inbounds nuw %struct.Vector2, ptr %117, i32 0, i32 1
  store float %112, ptr %118, align 4
  %119 = getelementptr inbounds nuw %struct.Vector2, ptr %10, i32 0, i32 0
  %120 = load float, ptr %119, align 4
  %121 = load float, ptr %13, align 4
  %122 = load float, ptr %15, align 4
  %123 = call float @llvm.fmuladd.f32(float %121, float %122, float %120)
  %124 = load i32, ptr %12, align 4
  %125 = mul nsw i32 2, %124
  %126 = sext i32 %125 to i64
  %127 = getelementptr inbounds [50 x %struct.Vector2], ptr %11, i64 0, i64 %126
  %128 = getelementptr inbounds nuw %struct.Vector2, ptr %127, i32 0, i32 0
  store float %123, ptr %128, align 8
  %129 = getelementptr inbounds nuw %struct.Vector2, ptr %10, i32 0, i32 1
  %130 = load float, ptr %129, align 4
  %131 = load float, ptr %14, align 4
  %132 = load float, ptr %15, align 4
  %133 = fneg float %131
  %134 = call float @llvm.fmuladd.f32(float %133, float %132, float %130)
  %135 = load i32, ptr %12, align 4
  %136 = mul nsw i32 2, %135
  %137 = sext i32 %136 to i64
  %138 = getelementptr inbounds [50 x %struct.Vector2], ptr %11, i64 0, i64 %137
  %139 = getelementptr inbounds nuw %struct.Vector2, ptr %138, i32 0, i32 1
  store float %134, ptr %139, align 4
  call void @llvm.memcpy.p0.p0.i64(ptr align 4 %9, ptr align 4 %10, i64 8, i1 false)
  call void @llvm.lifetime.end.p0(i64 4, ptr %15) #8
  call void @llvm.lifetime.end.p0(i64 4, ptr %14) #8
  call void @llvm.lifetime.end.p0(i64 4, ptr %13) #8
  br label %140

140:                                              ; preds = %95
  %141 = load i32, ptr %12, align 4
  %142 = add nsw i32 %141, 1
  store i32 %142, ptr %12, align 4
  br label %16

143:                                              ; preds = %19
  %144 = getelementptr inbounds [50 x %struct.Vector2], ptr %11, i64 0, i64 0
  %145 = load i32, ptr %7, align 1
  call void @DrawTriangleStrip(ptr noundef %144, i32 noundef 50, i32 %145)
  call void @llvm.lifetime.end.p0(i64 400, ptr %11) #8
  call void @llvm.lifetime.end.p0(i64 8, ptr %10) #8
  call void @llvm.lifetime.end.p0(i64 8, ptr %9) #8
  ret void
}