; Function Attrs: nounwind uwtable
define void @DrawLineBezier(<2 x float> %0, <2 x float> %1, float noundef %2, i32 %3) local_unnamed_addr #4 {
  %5 = alloca [50 x %struct.Vector2], align 16
  %.sroa.041.0.vec.extract43 = extractelement <2 x float> %0, i64 0
  %.sroa.041.4.vec.extract47 = extractelement <2 x float> %0, i64 1
  call void @llvm.lifetime.start.p0(i64 400, ptr nonnull %5) #16
  %6 = getelementptr inbounds nuw i8, ptr %5, i64 16
  call void @llvm.memset.p0.i64(ptr noundef nonnull align 16 dereferenceable(400) %6, i8 0, i64 384, i1 false)
  %7 = fsub <2 x float> %1, %0
  %8 = extractelement <2 x float> %7, i64 1
  %9 = fsub <2 x float> %1, %0
  %10 = extractelement <2 x float> %9, i64 0
  %11 = fdiv float %10, 2.400000e+01
  %12 = fmul float %2, 5.000000e-01
  %13 = fmul float %8, 5.000000e-01
  br label %18

14:                                               ; preds = %50
  %15 = getelementptr inbounds nuw i8, ptr %5, i64 12
  %16 = getelementptr inbounds nuw i8, ptr %5, i64 8
  %17 = getelementptr inbounds nuw i8, ptr %5, i64 4
  store float %53, ptr %17, align 4
  store float %52, ptr %16, align 8
  store float %51, ptr %15, align 4
  store float %54, ptr %5, align 16
  call void @DrawTriangleStrip(ptr noundef nonnull %5, i32 noundef 50, i32 %3)
  call void @llvm.lifetime.end.p0(i64 400, ptr nonnull %5) #16
  ret void

18:                                               ; preds = %4, %50
  %indvars.iv = phi i64 [ 1, %4 ], [ %indvars.iv.next, %50 ]
  %19 = phi float [ 0.000000e+00, %4 ], [ %51, %50 ]
  %20 = phi float [ 0.000000e+00, %4 ], [ %52, %50 ]
  %21 = phi float [ 0.000000e+00, %4 ], [ %53, %50 ]
  %.sroa.835.050 = phi float [ %.sroa.041.4.vec.extract47, %4 ], [ %.0.i, %50 ]
  %.sroa.031.049 = phi float [ %.sroa.041.0.vec.extract43, %4 ], [ %36, %50 ]
  %22 = phi float [ 0.000000e+00, %4 ], [ %54, %50 ]
  %23 = trunc nuw nsw i64 %indvars.iv to i32
  %24 = uitofp nneg i32 %23 to float
  %25 = fdiv float %24, 1.200000e+01
  %26 = fcmp olt float %25, 1.000000e+00
  br i1 %26, label %27, label %31

27:                                               ; preds = %18
  %28 = fmul float %13, %25
  %29 = fmul float %25, %28
  %30 = tail call float @llvm.fmuladd.f32(float %29, float %25, float %.sroa.041.4.vec.extract47)
  br label %EaseCubicInOut.exit

31:                                               ; preds = %18
  %32 = fadd float %25, -2.000000e+00
  %33 = fmul float %32, %32
  %34 = tail call float @llvm.fmuladd.f32(float %33, float %32, float 2.000000e+00)
  %35 = tail call float @llvm.fmuladd.f32(float %13, float %34, float %.sroa.041.4.vec.extract47)
  br label %EaseCubicInOut.exit

EaseCubicInOut.exit:                              ; preds = %27, %31
  %.0.i = phi float [ %30, %27 ], [ %35, %31 ]
  %36 = fadd float %11, %.sroa.031.049
  %37 = fsub float %.0.i, %.sroa.835.050
  %38 = fsub float %36, %.sroa.031.049
  %39 = fmul float %37, %37
  %40 = tail call float @llvm.fmuladd.f32(float %38, float %38, float %39)
  %sqrt = tail call float @llvm.sqrt.f32(float %40)
  %41 = fdiv float %12, %sqrt
  %42 = icmp eq i64 %indvars.iv, 1
  %43 = fneg float %38
  br i1 %42, label %44, label %EaseCubicInOut.exit._crit_edge

EaseCubicInOut.exit._crit_edge:                   ; preds = %EaseCubicInOut.exit
  %.pre = fneg float %37
  br label %50

44:                                               ; preds = %EaseCubicInOut.exit
  %45 = tail call float @llvm.fmuladd.f32(float %37, float %41, float %.sroa.031.049)
  %46 = tail call float @llvm.fmuladd.f32(float %43, float %41, float %.sroa.835.050)
  %47 = fneg float %37
  %48 = tail call float @llvm.fmuladd.f32(float %47, float %41, float %.sroa.031.049)
  %49 = tail call float @llvm.fmuladd.f32(float %38, float %41, float %.sroa.835.050)
  br label %50

50:                                               ; preds = %EaseCubicInOut.exit._crit_edge, %44
  %.pre-phi = phi float [ %.pre, %EaseCubicInOut.exit._crit_edge ], [ %47, %44 ]
  %51 = phi float [ %19, %EaseCubicInOut.exit._crit_edge ], [ %49, %44 ]
  %52 = phi float [ %20, %EaseCubicInOut.exit._crit_edge ], [ %48, %44 ]
  %53 = phi float [ %21, %EaseCubicInOut.exit._crit_edge ], [ %46, %44 ]
  %54 = phi float [ %22, %EaseCubicInOut.exit._crit_edge ], [ %45, %44 ]
  %55 = tail call float @llvm.fmuladd.f32(float %.pre-phi, float %41, float %36)
  %56 = shl nuw nsw i64 %indvars.iv, 1
  %57 = or disjoint i64 %56, 1
  %58 = getelementptr inbounds nuw [50 x %struct.Vector2], ptr %5, i64 0, i64 %57
  store float %55, ptr %58, align 8
  %59 = tail call float @llvm.fmuladd.f32(float %38, float %41, float %.0.i)
  %60 = getelementptr inbounds nuw i8, ptr %58, i64 4
  store float %59, ptr %60, align 4
  %61 = tail call float @llvm.fmuladd.f32(float %37, float %41, float %36)
  %62 = getelementptr inbounds nuw [50 x %struct.Vector2], ptr %5, i64 0, i64 %56
  store float %61, ptr %62, align 16
  %63 = tail call float @llvm.fmuladd.f32(float %43, float %41, float %.0.i)
  %64 = getelementptr inbounds nuw i8, ptr %62, i64 4
  store float %63, ptr %64, align 4
  %indvars.iv.next = add nuw nsw i64 %indvars.iv, 1
  %exitcond.not = icmp eq i64 %indvars.iv.next, 25
  br i1 %exitcond.not, label %14, label %18
}